target datalayout = "e-m:e-p270:32:32-p271:32:32-p272:64:64-i64:64-i128:128-f80:128-n8:16:32:64-S128"
target triple = "x86_64-pc-linux-gnu"

%struct._value_string_ext = type { ptr, i32, i32, ptr, ptr }
%struct._packet_info = type { ptr, ptr, i32, i32, %struct.nstime_t, %struct.nstime_t, %struct.nstime_t, i8, ptr, ptr, ptr, ptr, %struct._address, %struct._address, %struct._address, %struct._address, %struct._address, %struct._address, i32, ptr, i8, [3 x i8], %struct.anon, i32, i32, i32, i32, ptr, i8, ptr, ptr, i16, i16, i32, i32, i16, i32, i32, ptr, ptr, ptr, i8, i8, i16, i16, i16, i32, i16, i16, ptr, ptr, ptr, ptr, ptr, i32, i32 }
%struct.nstime_t = type { i64, i32 }
%struct._address = type { i32, i32, ptr, ptr }
%struct.anon = type { i8, [3 x i8] }

@hf_pap_connid = internal global i32 0, align 4
@hf_pap_function = internal global i32 0, align 4
@pap_function_vals_ext = internal global %struct._value_string_ext { ptr @_try_val_to_str_ext_init, i32 0, i32 9, ptr @pap_function_vals, ptr @.str.361 }, align 8
@hf_pap_socket = internal global i32 0, align 4
@hf_pap_quantum = internal global i32 0, align 4
@hf_pap_waittime = internal global i32 0, align 4
@hf_pap_result = internal global i32 0, align 4
@hf_pap_seq = internal global i32 0, align 4
@hf_pap_status = internal global i32 0, align 4
@hf_pap_eof = internal global i32 0, align 4
@hf_pap_pad = internal global i32 0, align 4
@ett_pap = internal global i32 0, align 4
@proto_pap = internal global i32 0, align 4
@.str.375 = private unnamed_addr constant [17 x i8] c"Unknown (0x%01x)\00", align 1
@.str.386 = private unnamed_addr constant [4 x i8] c"PAP\00", align 1
@.str.387 = private unnamed_addr constant [11 x i8] c"%s  ID: %d\00", align 1

; Function Attrs: null_pointer_is_valid sspstrong uwtable
define internal i32 @dissect_pascal_string(ptr noundef %0, i32 noundef %1, ptr noundef %2, i32 noundef %3) #1 {
  %5 = alloca ptr, align 8
  %6 = alloca i32, align 4
  %7 = alloca ptr, align 8
  %8 = alloca i32, align 4
  %9 = alloca i32, align 4
  store ptr %0, ptr %5, align 8
  store i32 %1, ptr %6, align 4
  store ptr %2, ptr %7, align 8
  store i32 %3, ptr %8, align 4
  call void @llvm.lifetime.start.p0(i64 4, ptr %9) #11
  %10 = load ptr, ptr %5, align 8
  %11 = load i32, ptr %6, align 4
  %12 = call zeroext i8 @tvb_get_uint8(ptr noundef %10, i32 noundef %11)
  %13 = zext i8 %12 to i32
  store i32 %13, ptr %9, align 4
  %14 = load ptr, ptr %7, align 8
  %15 = load i32, ptr %8, align 4
  %16 = load ptr, ptr %5, align 8
  %17 = load i32, ptr %6, align 4
  %18 = call ptr @proto_tree_add_item(ptr noundef %14, i32 noundef %15, ptr noundef %16, i32 noundef %17, i32 noundef 1, i32 noundef 48)
  %19 = load i32, ptr %9, align 4
  %20 = add i32 %19, 1
  %21 = load i32, ptr %6, align 4
  %22 = add i32 %21, %20
  store i32 %22, ptr %6, align 4
  %23 = load i32, ptr %6, align 4
  call void @llvm.lifetime.end.p0(i64 4, ptr %9) #11
  ret i32 %23
}

; Function Attrs: null_pointer_is_valid sspstrong uwtable
define internal i32 @dissect_pap(ptr noundef %0, ptr noundef %1, ptr noundef %2, ptr noundef %3) #1 {
  %5 = alloca ptr, align 8
  %6 = alloca ptr, align 8
  %7 = alloca ptr, align 8
  %8 = alloca ptr, align 8
  %9 = alloca i32, align 4
  %10 = alloca i8, align 1
  %11 = alloca i8, align 1
  %12 = alloca ptr, align 8
  %13 = alloca ptr, align 8
  store ptr %0, ptr %5, align 8
  store ptr %1, ptr %6, align 8
  store ptr %2, ptr %7, align 8
  store ptr %3, ptr %8, align 8
  call void @llvm.lifetime.start.p0(i64 4, ptr %9) #11
  store i32 0, ptr %9, align 4
  call void @llvm.lifetime.start.p0(i64 1, ptr %10) #11
  call void @llvm.lifetime.start.p0(i64 1, ptr %11) #11
  call void @llvm.lifetime.start.p0(i64 8, ptr %12) #11
  store ptr null, ptr %12, align 8
  call void @llvm.lifetime.start.p0(i64 8, ptr %13) #11
  %14 = load ptr, ptr %6, align 8
  %15 = getelementptr inbounds nuw %struct._packet_info, ptr %14, i32 0, i32 1
  %16 = load ptr, ptr %15, align 8
  call void @col_set_str(ptr noundef %16, i32 noundef 35, ptr noundef @.str.386)
  %17 = load ptr, ptr %6, align 8
  %18 = getelementptr inbounds nuw %struct._packet_info, ptr %17, i32 0, i32 1
  %19 = load ptr, ptr %18, align 8
  call void @col_clear(ptr noundef %19, i32 noundef 25)
  %20 = load ptr, ptr %7, align 8
  %21 = icmp ne ptr %20, null
  br i1 %21, label %22, label %31

22:                                               ; preds = %4
  %23 = load ptr, ptr %7, align 8
  %24 = load i32, ptr @proto_pap, align 4
  %25 = load ptr, ptr %5, align 8
  %26 = load i32, ptr %9, align 4
  %27 = call ptr @proto_tree_add_item(ptr noundef %23, i32 noundef %24, ptr noundef %25, i32 noundef %26, i32 noundef -1, i32 noundef 0)
  store ptr %27, ptr %13, align 8
  %28 = load ptr, ptr %13, align 8
  %29 = load i32, ptr @ett_pap, align 4
  %30 = call ptr @proto_item_add_subtree(ptr noundef %28, i32 noundef %29)
  store ptr %30, ptr %12, align 8
  br label %31

31:                                               ; preds = %22, %4
  %32 = load ptr, ptr %5, align 8
  %33 = load i32, ptr %9, align 4
  %34 = call zeroext i8 @tvb_get_uint8(ptr noundef %32, i32 noundef %33)
  store i8 %34, ptr %11, align 1
  %35 = load ptr, ptr %12, align 8
  %36 = load i32, ptr @hf_pap_connid, align 4
  %37 = load ptr, ptr %5, align 8
  %38 = load i32, ptr %9, align 4
  %39 = call ptr @proto_tree_add_item(ptr noundef %35, i32 noundef %36, ptr noundef %37, i32 noundef %38, i32 noundef 1, i32 noundef 0)
  %40 = load i32, ptr %9, align 4
  %41 = add i32 %40, 1
  store i32 %41, ptr %9, align 4
  %42 = load ptr, ptr %5, align 8
  %43 = load i32, ptr %9, align 4
  %44 = call zeroext i8 @tvb_get_uint8(ptr noundef %42, i32 noundef %43)
  store i8 %44, ptr %10, align 1
  %45 = load ptr, ptr %12, align 8
  %46 = load i32, ptr @hf_pap_function, align 4
  %47 = load ptr, ptr %5, align 8
  %48 = load i32, ptr %9, align 4
  %49 = call ptr @proto_tree_add_item(ptr noundef %45, i32 noundef %46, ptr noundef %47, i32 noundef %48, i32 noundef 1, i32 noundef 0)
  %50 = load i32, ptr %9, align 4
  %51 = add i32 %50, 1
  store i32 %51, ptr %9, align 4
  %52 = load ptr, ptr %6, align 8
  %53 = getelementptr inbounds nuw %struct._packet_info, ptr %52, i32 0, i32 1
  %54 = load ptr, ptr %53, align 8
  %55 = load i8, ptr %10, align 1
  %56 = zext i8 %55 to i32
  %57 = call ptr @val_to_str_ext(i32 noundef %56, ptr noundef @pap_function_vals_ext, ptr noundef @.str.375)
  %58 = load i8, ptr %11, align 1
  %59 = zext i8 %58 to i32
  call void (ptr, i32, ptr, ...) @col_add_fstr(ptr noundef %54, i32 noundef 25, ptr noundef @.str.387, ptr noundef %57, i32 noundef %59)
  %60 = load i8, ptr %10, align 1
  %61 = zext i8 %60 to i32
  switch i32 %61, label %190 [
    i32 1, label %62
    i32 2, label %91
    i32 3, label %125
    i32 4, label %133
    i32 5, label %154
    i32 6, label %154
    i32 7, label %154
    i32 8, label %162
    i32 9, label %170
  ]

62:                                               ; preds = %31
  %63 = load ptr, ptr %12, align 8
  %64 = load i32, ptr @hf_pap_pad, align 4
  %65 = load ptr, ptr %5, align 8
  %66 = load i32, ptr %9, align 4
  %67 = call ptr @proto_tree_add_item(ptr noundef %63, i32 noundef %64, ptr noundef %65, i32 noundef %66, i32 noundef 2, i32 noundef 0)
  %68 = load i32, ptr %9, align 4
  %69 = add i32 %68, 2
  store i32 %69, ptr %9, align 4
  %70 = load ptr, ptr %12, align 8
  %71 = load i32, ptr @hf_pap_socket, align 4
  %72 = load ptr, ptr %5, align 8
  %73 = load i32, ptr %9, align 4
  %74 = call ptr @proto_tree_add_item(ptr noundef %70, i32 noundef %71, ptr noundef %72, i32 noundef %73, i32 noundef 1, i32 noundef 0)
  %75 = load i32, ptr %9, align 4
  %76 = add i32 %75, 1
  store i32 %76, ptr %9, align 4
  %77 = load ptr, ptr %12, align 8
  %78 = load i32, ptr @hf_pap_quantum, align 4
  %79 = load ptr, ptr %5, align 8
  %80 = load i32, ptr %9, align 4
  %81 = call ptr @proto_tree_add_item(ptr noundef %77, i32 noundef %78, ptr noundef %79, i32 noundef %80, i32 noundef 1, i32 noundef 0)
  %82 = load i32, ptr %9, align 4
  %83 = add i32 %82, 1
  store i32 %83, ptr %9, align 4
  %84 = load ptr, ptr %12, align 8
  %85 = load i32, ptr @hf_pap_waittime, align 4
  %86 = load ptr, ptr %5, align 8
  %87 = load i32, ptr %9, align 4
  %88 = call ptr @proto_tree_add_item(ptr noundef %84, i32 noundef %85, ptr noundef %86, i32 noundef %87, i32 noundef 2, i32 noundef 0)
  %89 = load i32, ptr %9, align 4
  %90 = add i32 %89, 2
  store i32 %90, ptr %9, align 4
  br label %191

91:                                               ; preds = %31
  %92 = load ptr, ptr %12, align 8
  %93 = load i32, ptr @hf_pap_pad, align 4
  %94 = load ptr, ptr %5, align 8
  %95 = load i32, ptr %9, align 4
  %96 = call ptr @proto_tree_add_item(ptr noundef %92, i32 noundef %93, ptr noundef %94, i32 noundef %95, i32 noundef 2, i32 noundef 0)
  %97 = load i32, ptr %9, align 4
  %98 = add i32 %97, 2
  store i32 %98, ptr %9, align 4
  %99 = load ptr, ptr %12, align 8
  %100 = load i32, ptr @hf_pap_socket, align 4
  %101 = load ptr, ptr %5, align 8
  %102 = load i32, ptr %9, align 4
  %103 = call ptr @proto_tree_add_item(ptr noundef %99, i32 noundef %100, ptr noundef %101, i32 noundef %102, i32 noundef 1, i32 noundef 0)
  %104 = load i32, ptr %9, align 4
  %105 = add i32 %104, 1
  store i32 %105, ptr %9, align 4
  %106 = load ptr, ptr %12, align 8
  %107 = load i32, ptr @hf_pap_quantum, align 4
  %108 = load ptr, ptr %5, align 8
  %109 = load i32, ptr %9, align 4
  %110 = call ptr @proto_tree_add_item(ptr noundef %106, i32 noundef %107, ptr noundef %108, i32 noundef %109, i32 noundef 1, i32 noundef 0)
  %111 = load i32, ptr %9, align 4
  %112 = add i32 %111, 1
  store i32 %112, ptr %9, align 4
  %113 = load ptr, ptr %12, align 8
  %114 = load i32, ptr @hf_pap_result, align 4
  %115 = load ptr, ptr %5, align 8
  %116 = load i32, ptr %9, align 4
  %117 = call ptr @proto_tree_add_item(ptr noundef %113, i32 noundef %114, ptr noundef %115, i32 noundef %116, i32 noundef 2, i32 noundef 0)
  %118 = load i32, ptr %9, align 4
  %119 = add i32 %118, 2
  store i32 %119, ptr %9, align 4
  %120 = load ptr, ptr %5, align 8
  %121 = load i32, ptr %9, align 4
  %122 = load ptr, ptr %12, align 8
  %123 = load i32, ptr @hf_pap_status, align 4
  %124 = call i32 @dissect_pascal_string(ptr noundef %120, i32 noundef %121, ptr noundef %122, i32 noundef %123)
  store i32 %124, ptr %9, align 4
  br label %191

125:                                              ; preds = %31
  %126 = load ptr, ptr %12, align 8
  %127 = load i32, ptr @hf_pap_seq, align 4
  %128 = load ptr, ptr %5, align 8
  %129 = load i32, ptr %9, align 4
  %130 = call ptr @proto_tree_add_item(ptr noundef %126, i32 noundef %127, ptr noundef %128, i32 noundef %129, i32 noundef 2, i32 noundef 0)
  %131 = load i32, ptr %9, align 4
  %132 = add i32 %131, 2
  store i32 %132, ptr %9, align 4
  br label %191

133:                                              ; preds = %31
  %134 = load ptr, ptr %12, align 8
  %135 = load i32, ptr @hf_pap_eof, align 4
  %136 = load ptr, ptr %5, align 8
  %137 = load i32, ptr %9, align 4
  %138 = call ptr @proto_tree_add_item(ptr noundef %134, i32 noundef %135, ptr noundef %136, i32 noundef %137, i32 noundef 1, i32 noundef 0)
  %139 = load i32, ptr %9, align 4
  %140 = add i32 %139, 1
  store i32 %140, ptr %9, align 4
  %141 = load ptr, ptr %12, align 8
  %142 = load i32, ptr @hf_pap_pad, align 4
  %143 = load ptr, ptr %5, align 8
  %144 = load i32, ptr %9, align 4
  %145 = call ptr @proto_tree_add_item(ptr noundef %141, i32 noundef %142, ptr noundef %143, i32 noundef %144, i32 noundef 1, i32 noundef 0)
  %146 = load i32, ptr %9, align 4
  %147 = add i32 %146, 1
  store i32 %147, ptr %9, align 4
  %148 = load ptr, ptr %5, align 8
  %149 = load i32, ptr %9, align 4
  %150 = call ptr @tvb_new_subset_remaining(ptr noundef %148, i32 noundef %149)
  %151 = load ptr, ptr %6, align 8
  %152 = load ptr, ptr %7, align 8
  %153 = call i32 @call_data_dissector(ptr noundef %150, ptr noundef %151, ptr noundef %152)
  br label %191

154:                                              ; preds = %31, %31, %31
  %155 = load ptr, ptr %12, align 8
  %156 = load i32, ptr @hf_pap_pad, align 4
  %157 = load ptr, ptr %5, align 8
  %158 = load i32, ptr %9, align 4
  %159 = call ptr @proto_tree_add_item(ptr noundef %155, i32 noundef %156, ptr noundef %157, i32 noundef %158, i32 noundef 2, i32 noundef 0)
  %160 = load i32, ptr %9, align 4
  %161 = add i32 %160, 2
  store i32 %161, ptr %9, align 4
  br label %191

162:                                              ; preds = %31
  %163 = load ptr, ptr %12, align 8
  %164 = load i32, ptr @hf_pap_pad, align 4
  %165 = load ptr, ptr %5, align 8
  %166 = load i32, ptr %9, align 4
  %167 = call ptr @proto_tree_add_item(ptr noundef %163, i32 noundef %164, ptr noundef %165, i32 noundef %166, i32 noundef 2, i32 noundef 0)
  %168 = load i32, ptr %9, align 4
  %169 = add i32 %168, 2
  store i32 %169, ptr %9, align 4
  br label %191

170:                                              ; preds = %31
  %171 = load ptr, ptr %12, align 8
  %172 = load i32, ptr @hf_pap_pad, align 4
  %173 = load ptr, ptr %5, align 8
  %174 = load i32, ptr %9, align 4
  %175 = call ptr @proto_tree_add_item(ptr noundef %171, i32 noundef %172, ptr noundef %173, i32 noundef %174, i32 noundef 2, i32 noundef 0)
  %176 = load i32, ptr %9, align 4
  %177 = add i32 %176, 2
  store i32 %177, ptr %9, align 4
  %178 = load ptr, ptr %12, align 8
  %179 = load i32, ptr @hf_pap_pad, align 4
  %180 = load ptr, ptr %5, align 8
  %181 = load i32, ptr %9, align 4
  %182 = call ptr @proto_tree_add_item(ptr noundef %178, i32 noundef %179, ptr noundef %180, i32 noundef %181, i32 noundef 4, i32 noundef 0)
  %183 = load i32, ptr %9, align 4
  %184 = add i32 %183, 4
  store i32 %184, ptr %9, align 4
  %185 = load ptr, ptr %5, align 8
  %186 = load i32, ptr %9, align 4
  %187 = load ptr, ptr %12, align 8
  %188 = load i32, ptr @hf_pap_status, align 4
  %189 = call i32 @dissect_pascal_string(ptr noundef %185, i32 noundef %186, ptr noundef %187, i32 noundef %188)
  store i32 %189, ptr %9, align 4
  br label %191

190:                                              ; preds = %31
  br label %191

191:                                              ; preds = %190, %170, %162, %154, %133, %125, %91, %62
  %192 = load i32, ptr %9, align 4
  call void @llvm.lifetime.end.p0(i64 8, ptr %13) #11
  call void @llvm.lifetime.end.p0(i64 8, ptr %12) #11
  call void @llvm.lifetime.end.p0(i64 1, ptr %11) #11
  call void @llvm.lifetime.end.p0(i64 1, ptr %10) #11
  call void @llvm.lifetime.end.p0(i64 4, ptr %9) #11
  ret i32 %192
}