; Function Attrs: null_pointer_is_valid sspstrong uwtable
define internal range(i32 2, 265) i32 @dissect_pap(ptr noundef %0, ptr noundef %1, ptr noundef %2, ptr readnone captures(none) %3) #1 {
  %5 = getelementptr inbounds nuw i8, ptr %1, i64 8
  %6 = load ptr, ptr %5, align 8
  tail call void @col_set_str(ptr noundef %6, i32 noundef 35, ptr noundef nonnull @.str.386)
  %7 = load ptr, ptr %5, align 8
  tail call void @col_clear(ptr noundef %7, i32 noundef 25)
  %.not = icmp eq ptr %2, null
  br i1 %.not, label %13, label %8

8:                                                ; preds = %4
  %9 = load i32, ptr @proto_pap, align 4
  %10 = tail call ptr @proto_tree_add_item(ptr noundef nonnull %2, i32 noundef %9, ptr noundef %0, i32 noundef 0, i32 noundef -1, i32 noundef 0)
  %11 = load i32, ptr @ett_pap, align 4
  %12 = tail call ptr @proto_item_add_subtree(ptr noundef %10, i32 noundef %11)
  br label %13

13:                                               ; preds = %8, %4
  %.093 = phi ptr [ %12, %8 ], [ null, %4 ]
  %14 = tail call zeroext i8 @tvb_get_uint8(ptr noundef %0, i32 noundef 0)
  %15 = load i32, ptr @hf_pap_connid, align 4
  %16 = tail call ptr @proto_tree_add_item(ptr noundef %.093, i32 noundef %15, ptr noundef %0, i32 noundef 0, i32 noundef 1, i32 noundef 0)
  %17 = tail call zeroext i8 @tvb_get_uint8(ptr noundef %0, i32 noundef 1)
  %18 = load i32, ptr @hf_pap_function, align 4
  %19 = tail call ptr @proto_tree_add_item(ptr noundef %.093, i32 noundef %18, ptr noundef %0, i32 noundef 1, i32 noundef 1, i32 noundef 0)
  %20 = load ptr, ptr %5, align 8
  %21 = zext i8 %17 to i32
  %22 = tail call ptr @val_to_str_ext(i32 noundef %21, ptr noundef nonnull @pap_function_vals_ext, ptr noundef nonnull @.str.375)
  %23 = zext i8 %14 to i32
  tail call void (ptr, i32, ptr, ...) @col_add_fstr(ptr noundef %20, i32 noundef 25, ptr noundef nonnull @.str.387, ptr noundef %22, i32 noundef %23)
  switch i8 %17, label %73 [
    i8 1, label %24
    i8 2, label %33
    i8 3, label %47
    i8 4, label %50
    i8 5, label %57
    i8 6, label %57
    i8 7, label %57
    i8 8, label %60
    i8 9, label %63
  ]

24:                                               ; preds = %13
  %25 = load i32, ptr @hf_pap_pad, align 4
  %26 = tail call ptr @proto_tree_add_item(ptr noundef %.093, i32 noundef %25, ptr noundef %0, i32 noundef 2, i32 noundef 2, i32 noundef 0)
  %27 = load i32, ptr @hf_pap_socket, align 4
  %28 = tail call ptr @proto_tree_add_item(ptr noundef %.093, i32 noundef %27, ptr noundef %0, i32 noundef 4, i32 noundef 1, i32 noundef 0)
  %29 = load i32, ptr @hf_pap_quantum, align 4
  %30 = tail call ptr @proto_tree_add_item(ptr noundef %.093, i32 noundef %29, ptr noundef %0, i32 noundef 5, i32 noundef 1, i32 noundef 0)
  %31 = load i32, ptr @hf_pap_waittime, align 4
  %32 = tail call ptr @proto_tree_add_item(ptr noundef %.093, i32 noundef %31, ptr noundef %0, i32 noundef 6, i32 noundef 2, i32 noundef 0)
  br label %73

33:                                               ; preds = %13
  %34 = load i32, ptr @hf_pap_pad, align 4
  %35 = tail call ptr @proto_tree_add_item(ptr noundef %.093, i32 noundef %34, ptr noundef %0, i32 noundef 2, i32 noundef 2, i32 noundef 0)
  %36 = load i32, ptr @hf_pap_socket, align 4
  %37 = tail call ptr @proto_tree_add_item(ptr noundef %.093, i32 noundef %36, ptr noundef %0, i32 noundef 4, i32 noundef 1, i32 noundef 0)
  %38 = load i32, ptr @hf_pap_quantum, align 4
  %39 = tail call ptr @proto_tree_add_item(ptr noundef %.093, i32 noundef %38, ptr noundef %0, i32 noundef 5, i32 noundef 1, i32 noundef 0)
  %40 = load i32, ptr @hf_pap_result, align 4
  %41 = tail call ptr @proto_tree_add_item(ptr noundef %.093, i32 noundef %40, ptr noundef %0, i32 noundef 6, i32 noundef 2, i32 noundef 0)
  %42 = load i32, ptr @hf_pap_status, align 4
  %43 = tail call zeroext i8 @tvb_get_uint8(ptr noundef %0, i32 noundef 8)
  %44 = zext i8 %43 to i32
  %45 = tail call ptr @proto_tree_add_item(ptr noundef %.093, i32 noundef %42, ptr noundef %0, i32 noundef 8, i32 noundef 1, i32 noundef 48)
  %46 = add nuw nsw i32 %44, 9
  br label %73

47:                                               ; preds = %13
  %48 = load i32, ptr @hf_pap_seq, align 4
  %49 = tail call ptr @proto_tree_add_item(ptr noundef %.093, i32 noundef %48, ptr noundef %0, i32 noundef 2, i32 noundef 2, i32 noundef 0)
  br label %73

50:                                               ; preds = %13
  %51 = load i32, ptr @hf_pap_eof, align 4
  %52 = tail call ptr @proto_tree_add_item(ptr noundef %.093, i32 noundef %51, ptr noundef %0, i32 noundef 2, i32 noundef 1, i32 noundef 0)
  %53 = load i32, ptr @hf_pap_pad, align 4
  %54 = tail call ptr @proto_tree_add_item(ptr noundef %.093, i32 noundef %53, ptr noundef %0, i32 noundef 3, i32 noundef 1, i32 noundef 0)
  %55 = tail call ptr @tvb_new_subset_remaining(ptr noundef %0, i32 noundef 4)
  %56 = tail call i32 @call_data_dissector(ptr noundef %55, ptr noundef %1, ptr noundef %2)
  br label %73

57:                                               ; preds = %13, %13, %13
  %58 = load i32, ptr @hf_pap_pad, align 4
  %59 = tail call ptr @proto_tree_add_item(ptr noundef %.093, i32 noundef %58, ptr noundef %0, i32 noundef 2, i32 noundef 2, i32 noundef 0)
  br label %73

60:                                               ; preds = %13
  %61 = load i32, ptr @hf_pap_pad, align 4
  %62 = tail call ptr @proto_tree_add_item(ptr noundef %.093, i32 noundef %61, ptr noundef %0, i32 noundef 2, i32 noundef 2, i32 noundef 0)
  br label %73

63:                                               ; preds = %13
  %64 = load i32, ptr @hf_pap_pad, align 4
  %65 = tail call ptr @proto_tree_add_item(ptr noundef %.093, i32 noundef %64, ptr noundef %0, i32 noundef 2, i32 noundef 2, i32 noundef 0)
  %66 = load i32, ptr @hf_pap_pad, align 4
  %67 = tail call ptr @proto_tree_add_item(ptr noundef %.093, i32 noundef %66, ptr noundef %0, i32 noundef 4, i32 noundef 4, i32 noundef 0)
  %68 = load i32, ptr @hf_pap_status, align 4
  %69 = tail call zeroext i8 @tvb_get_uint8(ptr noundef %0, i32 noundef 8)
  %70 = zext i8 %69 to i32
  %71 = tail call ptr @proto_tree_add_item(ptr noundef %.093, i32 noundef %68, ptr noundef %0, i32 noundef 8, i32 noundef 1, i32 noundef 48)
  %72 = add nuw nsw i32 %70, 9
  br label %73

73:                                               ; preds = %13, %63, %60, %57, %50, %47, %33, %24
  %.0 = phi i32 [ 2, %13 ], [ %72, %63 ], [ 4, %60 ], [ 4, %57 ], [ 4, %50 ], [ 4, %47 ], [ %46, %33 ], [ 8, %24 ]
  ret i32 %.0
}